#include <math.h>
#include <stdio.h>
#include <stdlib.h>
#include <string.h>

void main()
{
	int heng,lie,i,j,k,l;
	scanf("%d %d",&heng,&lie);

	int **p;
	p=(int **)malloc(heng*sizeof(int *));
	for(i=0;i<heng;i++)
	{
		*(p+i)=(int *)malloc(lie*sizeof(int));
		for(j=0;j<lie;j++)
	     scanf("%d",*(p+i)+j);
	}
        for(j=0;j<lie;j++)
		{
		  for(k=j,l=0;k>=0;k--,l++)
		  {
			  if(l<heng)
	      printf("%d\n",*(*(p+l)+k));
			  else break;
		  }
		}
         for(j=lie;j<heng+lie-1;j++)
		 {
			 for(k=lie-1,l=j-(lie-1);k>=0;k--,l++)
			 {
				 if(l<heng)
		     printf("%d\n",*(*(p+l)+k));
				 else break;
			 }
		 }
}