; ModuleID = '4/71.c'
source_filename = "4/71.c"
target datalayout = "e-m:e-p270:32:32-p271:32:32-p272:64:64-i64:64-f80:128-n8:16:32:64-S128"
target triple = "x86_64-pc-linux-gnu"

@.str = private unnamed_addr constant [6 x i8] c"%d %d\00", align 1
@.str.1 = private unnamed_addr constant [3 x i8] c"%d\00", align 1
@.str.2 = private unnamed_addr constant [4 x i8] c"%d\0A\00", align 1

; Function Attrs: noinline nounwind uwtable
define dso_local void @main() #0 {
  %1 = alloca i32, align 4
  %2 = alloca i32, align 4
  %3 = alloca i32, align 4
  %4 = alloca i32, align 4
  %5 = alloca i32, align 4
  %6 = alloca i32, align 4
  %7 = alloca i32**, align 8
  %8 = call i32 (i8*, ...) @__isoc99_scanf(i8* getelementptr inbounds ([6 x i8], [6 x i8]* @.str, i64 0, i64 0), i32* %1, i32* %2)
  %9 = load i32, i32* %1, align 4
  %10 = sext i32 %9 to i64
  %11 = mul i64 %10, 8
  %12 = call noalias i8* @malloc(i64 %11) #3
  %13 = bitcast i8* %12 to i32**
  store i32** %13, i32*** %7, align 8
  store i32 0, i32* %3, align 4
  br label %14

14:                                               ; preds = %46, %0
  %15 = load i32, i32* %3, align 4
  %16 = load i32, i32* %1, align 4
  %17 = icmp slt i32 %15, %16
  br i1 %17, label %18, label %49

18:                                               ; preds = %14
  %19 = load i32, i32* %2, align 4
  %20 = sext i32 %19 to i64
  %21 = mul i64 %20, 4
  %22 = call noalias i8* @malloc(i64 %21) #3
  %23 = bitcast i8* %22 to i32*
  %24 = load i32**, i32*** %7, align 8
  %25 = load i32, i32* %3, align 4
  %26 = sext i32 %25 to i64
  %27 = getelementptr inbounds i32*, i32** %24, i64 %26
  store i32* %23, i32** %27, align 8
  store i32 0, i32* %4, align 4
  br label %28

28:                                               ; preds = %42, %18
  %29 = load i32, i32* %4, align 4
  %30 = load i32, i32* %2, align 4
  %31 = icmp slt i32 %29, %30
  br i1 %31, label %32, label %45

32:                                               ; preds = %28
  %33 = load i32**, i32*** %7, align 8
  %34 = load i32, i32* %3, align 4
  %35 = sext i32 %34 to i64
  %36 = getelementptr inbounds i32*, i32** %33, i64 %35
  %37 = load i32*, i32** %36, align 8
  %38 = load i32, i32* %4, align 4
  %39 = sext i32 %38 to i64
  %40 = getelementptr inbounds i32, i32* %37, i64 %39
  %41 = call i32 (i8*, ...) @__isoc99_scanf(i8* getelementptr inbounds ([3 x i8], [3 x i8]* @.str.1, i64 0, i64 0), i32* %40)
  br label %42

42:                                               ; preds = %32
  %43 = load i32, i32* %4, align 4
  %44 = add nsw i32 %43, 1
  store i32 %44, i32* %4, align 4
  br label %28

45:                                               ; preds = %28
  br label %46

46:                                               ; preds = %45
  %47 = load i32, i32* %3, align 4
  %48 = add nsw i32 %47, 1
  store i32 %48, i32* %3, align 4
  br label %14

49:                                               ; preds = %14
  store i32 0, i32* %4, align 4
  br label %50

50:                                               ; preds = %82, %49
  %51 = load i32, i32* %4, align 4
  %52 = load i32, i32* %2, align 4
  %53 = icmp slt i32 %51, %52
  br i1 %53, label %54, label %85

54:                                               ; preds = %50
  %55 = load i32, i32* %4, align 4
  store i32 %55, i32* %5, align 4
  store i32 0, i32* %6, align 4
  br label %56

56:                                               ; preds = %76, %54
  %57 = load i32, i32* %5, align 4
  %58 = icmp sge i32 %57, 0
  br i1 %58, label %59, label %81

59:                                               ; preds = %56
  %60 = load i32, i32* %6, align 4
  %61 = load i32, i32* %1, align 4
  %62 = icmp slt i32 %60, %61
  br i1 %62, label %63, label %74

63:                                               ; preds = %59
  %64 = load i32**, i32*** %7, align 8
  %65 = load i32, i32* %6, align 4
  %66 = sext i32 %65 to i64
  %67 = getelementptr inbounds i32*, i32** %64, i64 %66
  %68 = load i32*, i32** %67, align 8
  %69 = load i32, i32* %5, align 4
  %70 = sext i32 %69 to i64
  %71 = getelementptr inbounds i32, i32* %68, i64 %70
  %72 = load i32, i32* %71, align 4
  %73 = call i32 (i8*, ...) @printf(i8* getelementptr inbounds ([4 x i8], [4 x i8]* @.str.2, i64 0, i64 0), i32 %72)
  br label %75

74:                                               ; preds = %59
  br label %81

75:                                               ; preds = %63
  br label %76

76:                                               ; preds = %75
  %77 = load i32, i32* %5, align 4
  %78 = add nsw i32 %77, -1
  store i32 %78, i32* %5, align 4
  %79 = load i32, i32* %6, align 4
  %80 = add nsw i32 %79, 1
  store i32 %80, i32* %6, align 4
  br label %56

81:                                               ; preds = %74, %56
  br label %82

82:                                               ; preds = %81
  %83 = load i32, i32* %4, align 4
  %84 = add nsw i32 %83, 1
  store i32 %84, i32* %4, align 4
  br label %50

85:                                               ; preds = %50
  %86 = load i32, i32* %2, align 4
  store i32 %86, i32* %4, align 4
  br label %87

87:                                               ; preds = %127, %85
  %88 = load i32, i32* %4, align 4
  %89 = load i32, i32* %1, align 4
  %90 = load i32, i32* %2, align 4
  %91 = add nsw i32 %89, %90
  %92 = sub nsw i32 %91, 1
  %93 = icmp slt i32 %88, %92
  br i1 %93, label %94, label %130

94:                                               ; preds = %87
  %95 = load i32, i32* %2, align 4
  %96 = sub nsw i32 %95, 1
  store i32 %96, i32* %5, align 4
  %97 = load i32, i32* %4, align 4
  %98 = load i32, i32* %2, align 4
  %99 = sub nsw i32 %98, 1
  %100 = sub nsw i32 %97, %99
  store i32 %100, i32* %6, align 4
  br label %101

101:                                              ; preds = %121, %94
  %102 = load i32, i32* %5, align 4
  %103 = icmp sge i32 %102, 0
  br i1 %103, label %104, label %126

104:                                              ; preds = %101
  %105 = load i32, i32* %6, align 4
  %106 = load i32, i32* %1, align 4
  %107 = icmp slt i32 %105, %106
  br i1 %107, label %108, label %119

108:                                              ; preds = %104
  %109 = load i32**, i32*** %7, align 8
  %110 = load i32, i32* %6, align 4
  %111 = sext i32 %110 to i64
  %112 = getelementptr inbounds i32*, i32** %109, i64 %111
  %113 = load i32*, i32** %112, align 8
  %114 = load i32, i32* %5, align 4
  %115 = sext i32 %114 to i64
  %116 = getelementptr inbounds i32, i32* %113, i64 %115
  %117 = load i32, i32* %116, align 4
  %118 = call i32 (i8*, ...) @printf(i8* getelementptr inbounds ([4 x i8], [4 x i8]* @.str.2, i64 0, i64 0), i32 %117)
  br label %120

119:                                              ; preds = %104
  br label %126

120:                                              ; preds = %108
  br label %121

121:                                              ; preds = %120
  %122 = load i32, i32* %5, align 4
  %123 = add nsw i32 %122, -1
  store i32 %123, i32* %5, align 4
  %124 = load i32, i32* %6, align 4
  %125 = add nsw i32 %124, 1
  store i32 %125, i32* %6, align 4
  br label %101

126:                                              ; preds = %119, %101
  br label %127

127:                                              ; preds = %126
  %128 = load i32, i32* %4, align 4
  %129 = add nsw i32 %128, 1
  store i32 %129, i32* %4, align 4
  br label %87

130:                                              ; preds = %87
  ret void
}

declare dso_local i32 @__isoc99_scanf(i8*, ...) #1

; Function Attrs: nounwind
declare dso_local noalias i8* @malloc(i64) #2

declare dso_local i32 @printf(i8*, ...) #1


!llvm.module.flags = !{!0}
!llvm.ident = !{!1}

!0 = !{i32 1, !"wchar_size", i32 4}
!1 = !{!"clang version 10.0.0-4ubuntu1 "}
